target datalayout = "e-m:e-p270:32:32-p271:32:32-p272:64:64-i64:64-i128:128-f80:128-n8:16:32:64-S128"
target triple = "x86_64-pc-linux-gnu"

%"class.std::vector.7" = type { %"struct.std::_Vector_base.8" }
%"struct.std::_Vector_base.8" = type { %"struct.std::_Vector_base<unsigned int, std::allocator<unsigned int>>::_Vector_impl" }
%"struct.std::_Vector_base<unsigned int, std::allocator<unsigned int>>::_Vector_impl" = type { %"struct.std::_Vector_base<unsigned int, std::allocator<unsigned int>>::_Vector_impl_data" }
%"struct.std::_Vector_base<unsigned int, std::allocator<unsigned int>>::_Vector_impl_data" = type { ptr, ptr, ptr }
%"class.cv::line_descriptor::BinaryDescriptorMatcher::BucketGroup" = type { i32, %"class.std::vector.7" }
%"class.__gnu_cxx::__normal_iterator" = type { ptr }

; Function Attrs: mustprogress nounwind uwtable
define linkonce_odr hidden void @_ZN9__gnu_cxx17__normal_iteratorIPjSt6vectorIjSaIjEEEC2ERKS1_(ptr noundef nonnull align 8 dereferenceable(8) %0, ptr noundef nonnull align 8 dereferenceable(8) %1) unnamed_addr #5 comdat align 2 {
  %3 = alloca ptr, align 8
  %4 = alloca ptr, align 8
  store ptr %0, ptr %3, align 8, !tbaa !216
  store ptr %1, ptr %4, align 8, !tbaa !376
  %5 = load ptr, ptr %3, align 8
  %6 = getelementptr inbounds nuw %"class.__gnu_cxx::__normal_iterator", ptr %5, i32 0, i32 0
  %7 = load ptr, ptr %4, align 8, !tbaa !376
  %8 = load ptr, ptr %7, align 8, !tbaa !59
  store ptr %8, ptr %6, align 8, !tbaa !218
  ret void
}

; Function Attrs: mustprogress nounwind uwtable
define linkonce_odr hidden noundef nonnull align 4 dereferenceable(4) ptr @_ZNK9__gnu_cxx17__normal_iteratorIPjSt6vectorIjSaIjEEEdeEv(ptr noundef nonnull align 8 dereferenceable(8) %0) #5 comdat align 2 {
  %2 = alloca ptr, align 8
  store ptr %0, ptr %2, align 8, !tbaa !216
  %3 = load ptr, ptr %2, align 8
  %4 = getelementptr inbounds nuw %"class.__gnu_cxx::__normal_iterator", ptr %3, i32 0, i32 0
  %5 = load ptr, ptr %4, align 8, !tbaa !218
  ret ptr %5
}

; Function Attrs: mustprogress nounwind uwtable
define linkonce_odr hidden ptr @_ZNK9__gnu_cxx17__normal_iteratorIPjSt6vectorIjSaIjEEEplEl(ptr noundef nonnull align 8 dereferenceable(8) %0, i64 noundef %1) #5 comdat align 2 {
  %3 = alloca %"class.__gnu_cxx::__normal_iterator", align 8
  %4 = alloca ptr, align 8
  %5 = alloca i64, align 8
  %6 = alloca ptr, align 8
  store ptr %0, ptr %4, align 8, !tbaa !216
  store i64 %1, ptr %5, align 8, !tbaa !49
  %7 = load ptr, ptr %4, align 8
  call void @llvm.lifetime.start.p0(i64 8, ptr %6) #3
  %8 = getelementptr inbounds nuw %"class.__gnu_cxx::__normal_iterator", ptr %7, i32 0, i32 0
  %9 = load ptr, ptr %8, align 8, !tbaa !218
  %10 = load i64, ptr %5, align 8, !tbaa !49
  %11 = getelementptr inbounds i32, ptr %9, i64 %10
  store ptr %11, ptr %6, align 8, !tbaa !59
  call void @_ZN9__gnu_cxx17__normal_iteratorIPjSt6vectorIjSaIjEEEC2ERKS1_(ptr noundef nonnull align 8 dereferenceable(8) %3, ptr noundef nonnull align 8 dereferenceable(8) %6) #3
  call void @llvm.lifetime.end.p0(i64 8, ptr %6) #3
  %12 = getelementptr inbounds nuw %"class.__gnu_cxx::__normal_iterator", ptr %3, i32 0, i32 0
  %13 = load ptr, ptr %12, align 8
  ret ptr %13
}

; Function Attrs: mustprogress nounwind uwtable
define linkonce_odr hidden ptr @_ZNSt6vectorIjSaIjEE5beginEv(ptr noundef nonnull align 8 dereferenceable(24) %0) #5 comdat align 2 {
  %2 = alloca %"class.__gnu_cxx::__normal_iterator", align 8
  %3 = alloca ptr, align 8
  store ptr %0, ptr %3, align 8, !tbaa !185
  %4 = load ptr, ptr %3, align 8
  %5 = getelementptr inbounds nuw %"struct.std::_Vector_base.8", ptr %4, i32 0, i32 0
  %6 = getelementptr inbounds nuw %"struct.std::_Vector_base<unsigned int, std::allocator<unsigned int>>::_Vector_impl_data", ptr %5, i32 0, i32 0
  call void @_ZN9__gnu_cxx17__normal_iteratorIPjSt6vectorIjSaIjEEEC2ERKS1_(ptr noundef nonnull align 8 dereferenceable(8) %2, ptr noundef nonnull align 8 dereferenceable(8) %6) #3
  %7 = getelementptr inbounds nuw %"class.__gnu_cxx::__normal_iterator", ptr %2, i32 0, i32 0
  %8 = load ptr, ptr %7, align 8
  ret ptr %8
}

; Function Attrs: mustprogress nounwind uwtable
define linkonce_odr hidden noundef nonnull align 4 dereferenceable(4) ptr @_ZNSt6vectorIjSaIjEEixEm(ptr noundef nonnull align 8 dereferenceable(24) %0, i64 noundef %1) #5 comdat align 2 {
  %3 = alloca ptr, align 8
  %4 = alloca i64, align 8
  store ptr %0, ptr %3, align 8, !tbaa !185
  store i64 %1, ptr %4, align 8, !tbaa !49
  %5 = load ptr, ptr %3, align 8
  %6 = getelementptr inbounds nuw %"struct.std::_Vector_base.8", ptr %5, i32 0, i32 0
  %7 = getelementptr inbounds nuw %"struct.std::_Vector_base<unsigned int, std::allocator<unsigned int>>::_Vector_impl_data", ptr %6, i32 0, i32 0
  %8 = load ptr, ptr %7, align 8, !tbaa !187
  %9 = load i64, ptr %4, align 8, !tbaa !49
  %10 = getelementptr inbounds nuw i32, ptr %8, i64 %9
  ret ptr %10
}

; Function Attrs: mustprogress nounwind uwtable
define noundef ptr @_ZN2cv15line_descriptor23BinaryDescriptorMatcher11BucketGroup5queryEiPi(ptr noundef nonnull align 8 dereferenceable(32) %0, i32 noundef %1, ptr noundef %2) #5 align 2 {
  %4 = alloca ptr, align 8
  %5 = alloca ptr, align 8
  %6 = alloca i32, align 4
  %7 = alloca ptr, align 8
  %8 = alloca i32, align 4
  %9 = alloca i32, align 4
  %10 = alloca i32, align 4
  %11 = alloca %"class.__gnu_cxx::__normal_iterator", align 8
  %12 = alloca %"class.__gnu_cxx::__normal_iterator", align 8
  %13 = alloca %"class.__gnu_cxx::__normal_iterator", align 8
  %14 = alloca %"class.__gnu_cxx::__normal_iterator", align 8
  %15 = alloca %"class.__gnu_cxx::__normal_iterator", align 8
  store ptr %0, ptr %5, align 8, !tbaa !203
  store i32 %1, ptr %6, align 4, !tbaa !60
  store ptr %2, ptr %7, align 8, !tbaa !59
  %16 = load ptr, ptr %5, align 8
  %17 = getelementptr inbounds nuw %"class.cv::line_descriptor::BinaryDescriptorMatcher::BucketGroup", ptr %16, i32 0, i32 0
  %18 = load i32, ptr %17, align 8, !tbaa !208
  %19 = load i32, ptr %6, align 4, !tbaa !60
  %20 = shl i32 1, %19
  %21 = and i32 %18, %20
  %22 = icmp ne i32 %21, 0
  br i1 %22, label %23, label %71

23:                                               ; preds = %3
  call void @llvm.lifetime.start.p0(i64 4, ptr %8) #3
  %24 = load i32, ptr %6, align 4, !tbaa !60
  %25 = shl i32 1, %24
  %26 = sub i32 %25, 1
  store i32 %26, ptr %8, align 4, !tbaa !60
  call void @llvm.lifetime.start.p0(i64 4, ptr %9) #3
  %27 = getelementptr inbounds nuw %"class.cv::line_descriptor::BinaryDescriptorMatcher::BucketGroup", ptr %16, i32 0, i32 0
  %28 = load i32, ptr %27, align 8, !tbaa !208
  %29 = load i32, ptr %8, align 4, !tbaa !60
  %30 = and i32 %28, %29
  %31 = call i32 @llvm.ctpop.i32(i32 %30)
  store i32 %31, ptr %9, align 4, !tbaa !60
  call void @llvm.lifetime.start.p0(i64 4, ptr %10) #3
  %32 = getelementptr inbounds nuw %"class.cv::line_descriptor::BinaryDescriptorMatcher::BucketGroup", ptr %16, i32 0, i32 0
  %33 = load i32, ptr %32, align 8, !tbaa !208
  %34 = call i32 @llvm.ctpop.i32(i32 %33)
  store i32 %34, ptr %10, align 4, !tbaa !60
  %35 = getelementptr inbounds nuw %"class.cv::line_descriptor::BinaryDescriptorMatcher::BucketGroup", ptr %16, i32 0, i32 1
  %36 = load i32, ptr %9, align 4, !tbaa !60
  %37 = add nsw i32 2, %36
  %38 = add nsw i32 %37, 1
  %39 = sext i32 %38 to i64
  %40 = call noundef nonnull align 4 dereferenceable(4) ptr @_ZNSt6vectorIjSaIjEEixEm(ptr noundef nonnull align 8 dereferenceable(24) %35, i64 noundef %39) #3
  %41 = load i32, ptr %40, align 4, !tbaa !60
  %42 = getelementptr inbounds nuw %"class.cv::line_descriptor::BinaryDescriptorMatcher::BucketGroup", ptr %16, i32 0, i32 1
  %43 = load i32, ptr %9, align 4, !tbaa !60
  %44 = add nsw i32 2, %43
  %45 = sext i32 %44 to i64
  %46 = call noundef nonnull align 4 dereferenceable(4) ptr @_ZNSt6vectorIjSaIjEEixEm(ptr noundef nonnull align 8 dereferenceable(24) %42, i64 noundef %45) #3
  %47 = load i32, ptr %46, align 4, !tbaa !60
  %48 = sub i32 %41, %47
  %49 = load ptr, ptr %7, align 8, !tbaa !59
  store i32 %48, ptr %49, align 4, !tbaa !60
  call void @llvm.lifetime.start.p0(i64 8, ptr %11) #3
  call void @llvm.lifetime.start.p0(i64 8, ptr %12) #3
  call void @llvm.lifetime.start.p0(i64 8, ptr %13) #3
  call void @llvm.lifetime.start.p0(i64 8, ptr %14) #3
  call void @llvm.lifetime.start.p0(i64 8, ptr %15) #3
  %50 = getelementptr inbounds nuw %"class.cv::line_descriptor::BinaryDescriptorMatcher::BucketGroup", ptr %16, i32 0, i32 1
  %51 = call ptr @_ZNSt6vectorIjSaIjEE5beginEv(ptr noundef nonnull align 8 dereferenceable(24) %50) #3
  %52 = getelementptr inbounds nuw %"class.__gnu_cxx::__normal_iterator", ptr %15, i32 0, i32 0
  store ptr %51, ptr %52, align 8
  %53 = call ptr @_ZNK9__gnu_cxx17__normal_iteratorIPjSt6vectorIjSaIjEEEplEl(ptr noundef nonnull align 8 dereferenceable(8) %15, i64 noundef 2) #3
  %54 = getelementptr inbounds nuw %"class.__gnu_cxx::__normal_iterator", ptr %14, i32 0, i32 0
  store ptr %53, ptr %54, align 8
  %55 = load i32, ptr %10, align 4, !tbaa !60
  %56 = sext i32 %55 to i64
  %57 = call ptr @_ZNK9__gnu_cxx17__normal_iteratorIPjSt6vectorIjSaIjEEEplEl(ptr noundef nonnull align 8 dereferenceable(8) %14, i64 noundef %56) #3
  %58 = getelementptr inbounds nuw %"class.__gnu_cxx::__normal_iterator", ptr %13, i32 0, i32 0
  store ptr %57, ptr %58, align 8
  %59 = call ptr @_ZNK9__gnu_cxx17__normal_iteratorIPjSt6vectorIjSaIjEEEplEl(ptr noundef nonnull align 8 dereferenceable(8) %13, i64 noundef 1) #3
  %60 = getelementptr inbounds nuw %"class.__gnu_cxx::__normal_iterator", ptr %12, i32 0, i32 0
  store ptr %59, ptr %60, align 8
  %61 = getelementptr inbounds nuw %"class.cv::line_descriptor::BinaryDescriptorMatcher::BucketGroup", ptr %16, i32 0, i32 1
  %62 = load i32, ptr %9, align 4, !tbaa !60
  %63 = add nsw i32 2, %62
  %64 = sext i32 %63 to i64
  %65 = call noundef nonnull align 4 dereferenceable(4) ptr @_ZNSt6vectorIjSaIjEEixEm(ptr noundef nonnull align 8 dereferenceable(24) %61, i64 noundef %64) #3
  %66 = load i32, ptr %65, align 4, !tbaa !60
  %67 = sext i32 %66 to i64
  %68 = call ptr @_ZNK9__gnu_cxx17__normal_iteratorIPjSt6vectorIjSaIjEEEplEl(ptr noundef nonnull align 8 dereferenceable(8) %12, i64 noundef %67) #3
  %69 = getelementptr inbounds nuw %"class.__gnu_cxx::__normal_iterator", ptr %11, i32 0, i32 0
  store ptr %68, ptr %69, align 8
  %70 = call noundef nonnull align 4 dereferenceable(4) ptr @_ZNK9__gnu_cxx17__normal_iteratorIPjSt6vectorIjSaIjEEEdeEv(ptr noundef nonnull align 8 dereferenceable(8) %11) #3
  store ptr %70, ptr %4, align 8
  call void @llvm.lifetime.end.p0(i64 8, ptr %15) #3
  call void @llvm.lifetime.end.p0(i64 8, ptr %14) #3
  call void @llvm.lifetime.end.p0(i64 8, ptr %13) #3
  call void @llvm.lifetime.end.p0(i64 8, ptr %12) #3
  call void @llvm.lifetime.end.p0(i64 8, ptr %11) #3
  call void @llvm.lifetime.end.p0(i64 4, ptr %10) #3
  call void @llvm.lifetime.end.p0(i64 4, ptr %9) #3
  call void @llvm.lifetime.end.p0(i64 4, ptr %8) #3
  br label %73

71:                                               ; preds = %3
  %72 = load ptr, ptr %7, align 8, !tbaa !59
  store i32 0, ptr %72, align 4, !tbaa !60
  store ptr null, ptr %4, align 8
  br label %73

73:                                               ; preds = %71, %23
  %74 = load ptr, ptr %4, align 8
  ret ptr %74
}