; Function Attrs: mustprogress nofree norecurse nosync nounwind willreturn memory(read, argmem: readwrite, inaccessiblemem: none) uwtable
define noundef ptr @_ZN2cv15line_descriptor23BinaryDescriptorMatcher11BucketGroup5queryEiPi(ptr noundef nonnull readonly align 8 captures(none) dereferenceable(32) %0, i32 noundef %1, ptr noundef writeonly captures(none) initializes((0, 4)) %2) local_unnamed_addr #12 align 2 {
  %4 = load i32, ptr %0, align 8, !tbaa !100
  %5 = shl nuw i32 1, %1
  %6 = and i32 %4, %5
  %.not = icmp eq i32 %6, 0
  br i1 %.not, label %28, label %7

7:                                                ; preds = %3
  %8 = add i32 %5, -1
  %9 = and i32 %4, %8
  %10 = tail call range(i32 0, 33) i32 @llvm.ctpop.i32(i32 %9)
  %11 = tail call range(i32 0, 33) i32 @llvm.ctpop.i32(i32 %4)
  %12 = getelementptr inbounds nuw i8, ptr %0, i64 8
  %13 = load ptr, ptr %12, align 8, !tbaa !96
  %14 = zext nneg i32 %10 to i64
  %15 = getelementptr inbounds nuw i32, ptr %13, i64 %14
  %16 = getelementptr inbounds nuw i8, ptr %15, i64 12
  %17 = load i32, ptr %16, align 4, !tbaa !30
  %18 = getelementptr inbounds nuw i8, ptr %15, i64 8
  %19 = load i32, ptr %18, align 4, !tbaa !30
  %20 = sub i32 %17, %19
  store i32 %20, ptr %2, align 4, !tbaa !30
  %21 = getelementptr inbounds nuw i8, ptr %13, i64 8
  %22 = zext nneg i32 %11 to i64
  %23 = getelementptr inbounds nuw i32, ptr %21, i64 %22
  %24 = getelementptr inbounds nuw i8, ptr %23, i64 4
  %25 = load i32, ptr %18, align 4, !tbaa !30
  %26 = sext i32 %25 to i64
  %27 = getelementptr inbounds i32, ptr %24, i64 %26
  br label %29

28:                                               ; preds = %3
  store i32 0, ptr %2, align 4, !tbaa !30
  br label %29

29:                                               ; preds = %28, %7
  %.0 = phi ptr [ %27, %7 ], [ null, %28 ]
  ret ptr %.0
}